target datalayout = "e-m:e-p270:32:32-p271:32:32-p272:64:64-i64:64-i128:128-f80:128-n8:16:32:64-S128"
target triple = "x86_64-pc-linux-gnu"

%struct.AVCodecContext = type { ptr, i32, i32, ptr, i32, i32, ptr, ptr, ptr, i64, i32, i32, ptr, i32, %struct.AVRational, %struct.AVRational, %struct.AVRational, i32, i32, i32, i32, i32, %struct.AVRational, i32, i32, i32, i32, i32, i32, i32, i32, i32, i32, i32, ptr, ptr, i32, float, float, float, float, float, float, float, float, float, i32, i32, i32, i32, i32, i32, i32, i32, i32, i32, i32, i32, ptr, ptr, ptr, i32, i32, i32, i32, i32, i32, i32, i32, i32, i32, %struct.AVChannelLayout, i32, i32, i32, i32, i32, i32, i32, i32, ptr, i32, i32, i32, float, float, i32, i32, i32, i32, i32, ptr, i64, i64, float, float, i32, i32, ptr, ptr, i32, i32, i32, i32, i32, ptr, ptr, ptr, ptr, i32, i32, [8 x i64], i32, i32, i32, i32, i32, i32, i32, ptr, ptr, i32, i32, i32, i32, i32, i32, i32, i32, i32, i32, ptr, ptr, i32, i32, ptr, ptr, ptr, ptr, i32, i32, i64, i32, i32, i64, ptr, i64, ptr, i32, ptr, i32 }
%struct.AVRational = type { i32, i32 }
%struct.AVChannelLayout = type { i32, i32, %union.anon.1, ptr }
%union.anon.1 = type { i64 }
%struct.AV1RawSequenceHeader = type { i8, i8, i8, i8, i8, i8, i8, %struct.AV1RawTimingInfo, %struct.AV1RawDecoderModelInfo, [32 x i16], [32 x i8], [32 x i8], [32 x i8], [32 x i32], [32 x i32], [32 x i8], [32 x i8], [32 x i8], i8, i8, i16, i16, i8, i8, i8, i8, i8, i8, i8, i8, i8, i8, i8, i8, i8, i8, i8, i8, i8, i8, i8, i8, i8, %struct.AV1RawColorConfig, i8 }
%struct.AV1RawTimingInfo = type { i32, i32, i8, i32 }
%struct.AV1RawDecoderModelInfo = type { i8, i32, i8, i8 }
%struct.AV1RawColorConfig = type { i8, i8, i8, i8, i8, i8, i8, i8, i8, i8, i8, i8 }

; Function Attrs: nounwind uwtable
define internal i32 @set_context_with_sequence(ptr noundef %0, ptr noundef %1) #1 {
  %3 = alloca i32, align 4
  %4 = alloca ptr, align 8
  %5 = alloca ptr, align 8
  %6 = alloca i32, align 4
  %7 = alloca i32, align 4
  %8 = alloca i32, align 4
  %9 = alloca i32, align 4
  %10 = alloca %struct.AVRational, align 4
  store ptr %0, ptr %4, align 8, !tbaa !4
  store ptr %1, ptr %5, align 8, !tbaa !75
  call void @llvm.lifetime.start.p0(i64 4, ptr %6) #11
  %11 = load ptr, ptr %5, align 8, !tbaa !75
  %12 = getelementptr inbounds nuw %struct.AV1RawSequenceHeader, ptr %11, i32 0, i32 20
  %13 = load i16, ptr %12, align 2, !tbaa !103
  %14 = zext i16 %13 to i32
  %15 = add nsw i32 %14, 1
  store i32 %15, ptr %6, align 4, !tbaa !62
  call void @llvm.lifetime.start.p0(i64 4, ptr %7) #11
  %16 = load ptr, ptr %5, align 8, !tbaa !75
  %17 = getelementptr inbounds nuw %struct.AV1RawSequenceHeader, ptr %16, i32 0, i32 21
  %18 = load i16, ptr %17, align 4, !tbaa !108
  %19 = zext i16 %18 to i32
  %20 = add nsw i32 %19, 1
  store i32 %20, ptr %7, align 4, !tbaa !62
  %21 = load ptr, ptr %5, align 8, !tbaa !75
  %22 = getelementptr inbounds nuw %struct.AV1RawSequenceHeader, ptr %21, i32 0, i32 0
  %23 = load i8, ptr %22, align 4, !tbaa !109
  %24 = zext i8 %23 to i32
  %25 = load ptr, ptr %4, align 8, !tbaa !4
  %26 = getelementptr inbounds nuw %struct.AVCodecContext, ptr %25, i32 0, i32 121
  store i32 %24, ptr %26, align 8, !tbaa !110
  %27 = load ptr, ptr %5, align 8, !tbaa !75
  %28 = getelementptr inbounds nuw %struct.AV1RawSequenceHeader, ptr %27, i32 0, i32 10
  %29 = getelementptr inbounds [32 x i8], ptr %28, i64 0, i64 0
  %30 = load i8, ptr %29, align 4, !tbaa !83
  %31 = zext i8 %30 to i32
  %32 = load ptr, ptr %4, align 8, !tbaa !4
  %33 = getelementptr inbounds nuw %struct.AVCodecContext, ptr %32, i32 0, i32 122
  store i32 %31, ptr %33, align 4, !tbaa !111
  %34 = load ptr, ptr %5, align 8, !tbaa !75
  %35 = getelementptr inbounds nuw %struct.AV1RawSequenceHeader, ptr %34, i32 0, i32 43
  %36 = getelementptr inbounds nuw %struct.AV1RawColorConfig, ptr %35, i32 0, i32 7
  %37 = load i8, ptr %36, align 1, !tbaa !112
  %38 = zext i8 %37 to i32
  %39 = icmp ne i32 %38, 0
  %40 = select i1 %39, i32 2, i32 1
  %41 = load ptr, ptr %4, align 8, !tbaa !4
  %42 = getelementptr inbounds nuw %struct.AVCodecContext, ptr %41, i32 0, i32 28
  store i32 %40, ptr %42, align 4, !tbaa !113
  %43 = load ptr, ptr %5, align 8, !tbaa !75
  %44 = getelementptr inbounds nuw %struct.AV1RawSequenceHeader, ptr %43, i32 0, i32 43
  %45 = getelementptr inbounds nuw %struct.AV1RawColorConfig, ptr %44, i32 0, i32 4
  %46 = load i8, ptr %45, align 1, !tbaa !114
  %47 = zext i8 %46 to i32
  %48 = load ptr, ptr %4, align 8, !tbaa !4
  %49 = getelementptr inbounds nuw %struct.AVCodecContext, ptr %48, i32 0, i32 25
  store i32 %47, ptr %49, align 8, !tbaa !115
  %50 = load ptr, ptr %5, align 8, !tbaa !75
  %51 = getelementptr inbounds nuw %struct.AV1RawSequenceHeader, ptr %50, i32 0, i32 43
  %52 = getelementptr inbounds nuw %struct.AV1RawColorConfig, ptr %51, i32 0, i32 6
  %53 = load i8, ptr %52, align 1, !tbaa !116
  %54 = zext i8 %53 to i32
  %55 = load ptr, ptr %4, align 8, !tbaa !4
  %56 = getelementptr inbounds nuw %struct.AVCodecContext, ptr %55, i32 0, i32 27
  store i32 %54, ptr %56, align 8, !tbaa !117
  %57 = load ptr, ptr %5, align 8, !tbaa !75
  %58 = getelementptr inbounds nuw %struct.AV1RawSequenceHeader, ptr %57, i32 0, i32 43
  %59 = getelementptr inbounds nuw %struct.AV1RawColorConfig, ptr %58, i32 0, i32 5
  %60 = load i8, ptr %59, align 1, !tbaa !118
  %61 = zext i8 %60 to i32
  %62 = load ptr, ptr %4, align 8, !tbaa !4
  %63 = getelementptr inbounds nuw %struct.AVCodecContext, ptr %62, i32 0, i32 26
  store i32 %61, ptr %63, align 4, !tbaa !119
  %64 = load ptr, ptr %5, align 8, !tbaa !75
  %65 = getelementptr inbounds nuw %struct.AV1RawSequenceHeader, ptr %64, i32 0, i32 43
  %66 = getelementptr inbounds nuw %struct.AV1RawColorConfig, ptr %65, i32 0, i32 10
  %67 = load i8, ptr %66, align 1, !tbaa !120
  %68 = zext i8 %67 to i32
  switch i32 %68, label %75 [
    i32 1, label %69
    i32 2, label %72
  ]

69:                                               ; preds = %2
  %70 = load ptr, ptr %4, align 8, !tbaa !4
  %71 = getelementptr inbounds nuw %struct.AVCodecContext, ptr %70, i32 0, i32 29
  store i32 1, ptr %71, align 8, !tbaa !121
  br label %75

72:                                               ; preds = %2
  %73 = load ptr, ptr %4, align 8, !tbaa !4
  %74 = getelementptr inbounds nuw %struct.AVCodecContext, ptr %73, i32 0, i32 29
  store i32 3, ptr %74, align 8, !tbaa !121
  br label %75

75:                                               ; preds = %2, %72, %69
  %76 = load ptr, ptr %5, align 8, !tbaa !75
  %77 = getelementptr inbounds nuw %struct.AV1RawSequenceHeader, ptr %76, i32 0, i32 44
  %78 = load i8, ptr %77, align 1, !tbaa !122
  %79 = icmp ne i8 %78, 0
  br i1 %79, label %80, label %85

80:                                               ; preds = %75
  %81 = load ptr, ptr %4, align 8, !tbaa !4
  %82 = getelementptr inbounds nuw %struct.AVCodecContext, ptr %81, i32 0, i32 123
  %83 = load i32, ptr %82, align 8, !tbaa !123
  %84 = or i32 %83, 4
  store i32 %84, ptr %82, align 8, !tbaa !123
  br label %90

85:                                               ; preds = %75
  %86 = load ptr, ptr %4, align 8, !tbaa !4
  %87 = getelementptr inbounds nuw %struct.AVCodecContext, ptr %86, i32 0, i32 123
  %88 = load i32, ptr %87, align 8, !tbaa !123
  %89 = and i32 %88, -5
  store i32 %89, ptr %87, align 8, !tbaa !123
  br label %90

90:                                               ; preds = %85, %80
  %91 = load ptr, ptr %4, align 8, !tbaa !4
  %92 = getelementptr inbounds nuw %struct.AVCodecContext, ptr %91, i32 0, i32 18
  %93 = load i32, ptr %92, align 8, !tbaa !124
  %94 = load i32, ptr %6, align 4, !tbaa !62
  %95 = icmp ne i32 %93, %94
  br i1 %95, label %102, label %96

96:                                               ; preds = %90
  %97 = load ptr, ptr %4, align 8, !tbaa !4
  %98 = getelementptr inbounds nuw %struct.AVCodecContext, ptr %97, i32 0, i32 19
  %99 = load i32, ptr %98, align 4, !tbaa !125
  %100 = load i32, ptr %7, align 4, !tbaa !62
  %101 = icmp ne i32 %99, %100
  br i1 %101, label %102, label %115

102:                                              ; preds = %96, %90
  call void @llvm.lifetime.start.p0(i64 4, ptr %8) #11
  %103 = load ptr, ptr %4, align 8, !tbaa !4
  %104 = load i32, ptr %6, align 4, !tbaa !62
  %105 = load i32, ptr %7, align 4, !tbaa !62
  %106 = call i32 @ff_set_dimensions(ptr noundef %103, i32 noundef %104, i32 noundef %105)
  store i32 %106, ptr %8, align 4, !tbaa !62
  %107 = load i32, ptr %8, align 4, !tbaa !62
  %108 = icmp slt i32 %107, 0
  br i1 %108, label %109, label %111

109:                                              ; preds = %102
  %110 = load i32, ptr %8, align 4, !tbaa !62
  store i32 %110, ptr %3, align 4
  store i32 1, ptr %9, align 4
  br label %112

111:                                              ; preds = %102
  store i32 0, ptr %9, align 4
  br label %112

112:                                              ; preds = %111, %109
  call void @llvm.lifetime.end.p0(i64 4, ptr %8) #11
  %113 = load i32, ptr %9, align 4
  switch i32 %113, label %152 [
    i32 0, label %114
  ]

114:                                              ; preds = %112
  br label %115

115:                                              ; preds = %114, %96
  %116 = load ptr, ptr %5, align 8, !tbaa !75
  %117 = getelementptr inbounds nuw %struct.AV1RawSequenceHeader, ptr %116, i32 0, i32 3
  %118 = load i8, ptr %117, align 1, !tbaa !126
  %119 = icmp ne i8 %118, 0
  br i1 %119, label %120, label %140

120:                                              ; preds = %115
  %121 = load ptr, ptr %4, align 8, !tbaa !4
  %122 = getelementptr inbounds nuw %struct.AVCodecContext, ptr %121, i32 0, i32 16
  call void @llvm.lifetime.start.p0(i64 8, ptr %10) #11
  %123 = load ptr, ptr %5, align 8, !tbaa !75
  %124 = getelementptr inbounds nuw %struct.AV1RawSequenceHeader, ptr %123, i32 0, i32 7
  %125 = getelementptr inbounds nuw %struct.AV1RawTimingInfo, ptr %124, i32 0, i32 3
  %126 = load i32, ptr %125, align 4, !tbaa !127
  %127 = zext i32 %126 to i64
  %128 = add nsw i64 1, %127
  %129 = load ptr, ptr %5, align 8, !tbaa !75
  %130 = getelementptr inbounds nuw %struct.AV1RawSequenceHeader, ptr %129, i32 0, i32 7
  %131 = getelementptr inbounds nuw %struct.AV1RawTimingInfo, ptr %130, i32 0, i32 0
  %132 = load i32, ptr %131, align 4, !tbaa !128
  %133 = zext i32 %132 to i64
  %134 = load ptr, ptr %5, align 8, !tbaa !75
  %135 = getelementptr inbounds nuw %struct.AV1RawSequenceHeader, ptr %134, i32 0, i32 7
  %136 = getelementptr inbounds nuw %struct.AV1RawTimingInfo, ptr %135, i32 0, i32 1
  %137 = load i32, ptr %136, align 4, !tbaa !129
  %138 = zext i32 %137 to i64
  %139 = call i64 @ff_av1_framerate(i64 noundef %128, i64 noundef %133, i64 noundef %138)
  store i64 %139, ptr %10, align 4
  call void @llvm.memcpy.p0.p0.i64(ptr align 4 %122, ptr align 4 %10, i64 8, i1 false), !tbaa.struct !130
  call void @llvm.lifetime.end.p0(i64 8, ptr %10) #11
  br label %140

140:                                              ; preds = %120, %115
  %141 = load ptr, ptr %4, align 8, !tbaa !4
  %142 = getelementptr inbounds nuw %struct.AVCodecContext, ptr %141, i32 0, i32 23
  %143 = load i32, ptr %142, align 8, !tbaa !131
  %144 = icmp eq i32 %143, -1
  br i1 %144, label %145, label %151

145:                                              ; preds = %140
  %146 = load ptr, ptr %4, align 8, !tbaa !4
  %147 = load ptr, ptr %5, align 8, !tbaa !75
  %148 = call i32 @get_sw_pixel_format(ptr noundef %146, ptr noundef %147)
  %149 = load ptr, ptr %4, align 8, !tbaa !4
  %150 = getelementptr inbounds nuw %struct.AVCodecContext, ptr %149, i32 0, i32 23
  store i32 %148, ptr %150, align 8, !tbaa !131
  br label %151

151:                                              ; preds = %145, %140
  store i32 0, ptr %3, align 4
  store i32 1, ptr %9, align 4
  br label %152

152:                                              ; preds = %151, %112
  call void @llvm.lifetime.end.p0(i64 4, ptr %7) #11
  call void @llvm.lifetime.end.p0(i64 4, ptr %6) #11
  %153 = load i32, ptr %3, align 4
  ret i32 %153
}