; Function Attrs: nounwind uwtable
define internal fastcc range(i32 -2147483648, 1) i32 @set_context_with_sequence(ptr noundef initializes((144, 160), (688, 696)) %0, ptr noundef nonnull readonly captures(none) %1) unnamed_addr #1 {
  %3 = getelementptr inbounds nuw i8, ptr %1, i64 550
  %4 = load i16, ptr %3, align 2, !tbaa !206
  %5 = zext i16 %4 to i32
  %6 = add nuw nsw i32 %5, 1
  %7 = getelementptr inbounds nuw i8, ptr %1, i64 552
  %8 = load i16, ptr %7, align 4, !tbaa !207
  %9 = zext i16 %8 to i32
  %10 = add nuw nsw i32 %9, 1
  %11 = load i8, ptr %1, align 4, !tbaa !208
  %12 = zext i8 %11 to i32
  %13 = getelementptr inbounds nuw i8, ptr %0, i64 688
  store i32 %12, ptr %13, align 8, !tbaa !209
  %14 = getelementptr inbounds nuw i8, ptr %1, i64 100
  %15 = load i8, ptr %14, align 4, !tbaa !77
  %16 = zext i8 %15 to i32
  %17 = getelementptr inbounds nuw i8, ptr %0, i64 692
  store i32 %16, ptr %17, align 4, !tbaa !210
  %18 = getelementptr inbounds nuw i8, ptr %1, i64 582
  %19 = load i8, ptr %18, align 1, !tbaa !211
  %.not = icmp eq i8 %19, 0
  %20 = select i1 %.not, i32 1, i32 2
  %21 = getelementptr inbounds nuw i8, ptr %0, i64 156
  store i32 %20, ptr %21, align 4, !tbaa !212
  %22 = getelementptr inbounds nuw i8, ptr %1, i64 579
  %23 = load i8, ptr %22, align 1, !tbaa !213
  %24 = zext i8 %23 to i32
  %25 = getelementptr inbounds nuw i8, ptr %0, i64 144
  store i32 %24, ptr %25, align 8, !tbaa !214
  %26 = getelementptr inbounds nuw i8, ptr %1, i64 581
  %27 = load i8, ptr %26, align 1, !tbaa !215
  %28 = zext i8 %27 to i32
  %29 = getelementptr inbounds nuw i8, ptr %0, i64 152
  store i32 %28, ptr %29, align 8, !tbaa !216
  %30 = getelementptr inbounds nuw i8, ptr %1, i64 580
  %31 = load i8, ptr %30, align 1, !tbaa !217
  %32 = zext i8 %31 to i32
  %33 = getelementptr inbounds nuw i8, ptr %0, i64 148
  store i32 %32, ptr %33, align 4, !tbaa !218
  %34 = getelementptr inbounds nuw i8, ptr %1, i64 585
  %35 = load i8, ptr %34, align 1, !tbaa !219
  switch i8 %35, label %38 [
    i8 1, label %.sink.split
    i8 2, label %36
  ]

36:                                               ; preds = %2
  br label %.sink.split

.sink.split:                                      ; preds = %2, %36
  %.sink = phi i32 [ 3, %36 ], [ 1, %2 ]
  %37 = getelementptr inbounds nuw i8, ptr %0, i64 160
  store i32 %.sink, ptr %37, align 8, !tbaa !220
  br label %38

38:                                               ; preds = %.sink.split, %2
  %39 = getelementptr inbounds nuw i8, ptr %1, i64 587
  %40 = load i8, ptr %39, align 1, !tbaa !221
  %.not40 = icmp eq i8 %40, 0
  %41 = getelementptr inbounds nuw i8, ptr %0, i64 696
  %42 = load i32, ptr %41, align 8, !tbaa !222
  %43 = and i32 %42, -5
  %masksel = select i1 %.not40, i32 0, i32 4
  %.sink45 = or disjoint i32 %43, %masksel
  store i32 %.sink45, ptr %41, align 8, !tbaa !222
  %44 = getelementptr inbounds nuw i8, ptr %0, i64 112
  %45 = load i32, ptr %44, align 8, !tbaa !129
  %.not41 = icmp eq i32 %45, %6
  br i1 %.not41, label %46, label %49

46:                                               ; preds = %38
  %47 = getelementptr inbounds nuw i8, ptr %0, i64 116
  %48 = load i32, ptr %47, align 4, !tbaa !130
  %.not42 = icmp eq i32 %48, %10
  br i1 %.not42, label %52, label %49

49:                                               ; preds = %46, %38
  %50 = tail call i32 @ff_set_dimensions(ptr noundef nonnull %0, i32 noundef %6, i32 noundef %10) #9
  %51 = icmp sgt i32 %50, -1
  br i1 %51, label %52, label %74

52:                                               ; preds = %49, %46
  %53 = getelementptr inbounds nuw i8, ptr %1, i64 3
  %54 = load i8, ptr %53, align 1, !tbaa !223
  %.not43 = icmp eq i8 %54, 0
  br i1 %.not43, label %68, label %55

55:                                               ; preds = %52
  %56 = getelementptr inbounds nuw i8, ptr %0, i64 100
  %57 = getelementptr inbounds nuw i8, ptr %1, i64 8
  %58 = getelementptr inbounds nuw i8, ptr %1, i64 20
  %59 = load i32, ptr %58, align 4, !tbaa !224
  %60 = zext i32 %59 to i64
  %61 = add nuw nsw i64 %60, 1
  %62 = load i32, ptr %57, align 4, !tbaa !225
  %63 = zext i32 %62 to i64
  %64 = getelementptr inbounds nuw i8, ptr %1, i64 12
  %65 = load i32, ptr %64, align 4, !tbaa !226
  %66 = zext i32 %65 to i64
  %67 = tail call i64 @ff_av1_framerate(i64 noundef %61, i64 noundef %63, i64 noundef %66) #9
  store i64 %67, ptr %56, align 4
  br label %68

68:                                               ; preds = %55, %52
  %69 = getelementptr inbounds nuw i8, ptr %0, i64 136
  %70 = load i32, ptr %69, align 8, !tbaa !122
  %71 = icmp eq i32 %70, -1
  br i1 %71, label %72, label %74

72:                                               ; preds = %68
  %73 = tail call fastcc i32 @get_sw_pixel_format(ptr noundef nonnull %0, ptr noundef nonnull %1)
  store i32 %73, ptr %69, align 8, !tbaa !122
  br label %74

74:                                               ; preds = %68, %72, %49
  %.1 = phi i32 [ %50, %49 ], [ 0, %72 ], [ 0, %68 ]
  ret i32 %.1
}